target datalayout = "e-m:e-p270:32:32-p271:32:32-p272:64:64-i64:64-i128:128-f80:128-n8:16:32:64-S128"
target triple = "x86_64-pc-linux-gnu"

%struct.v3_ext_method = type { i32, i32, ptr, ptr, ptr, ptr, ptr, ptr, ptr, ptr, ptr, ptr, ptr, ptr }
%struct.X509_extension_st = type { ptr, i32, ptr }

@ext_list = internal global ptr null, align 8

; Function Attrs: inlinehint nounwind uwtable
define available_externally ptr @bsearch(ptr noundef nonnull %0, ptr noundef nonnull %1, i64 noundef %2, i64 noundef %3, ptr noundef nonnull %4) #3 {
  %6 = alloca ptr, align 8
  %7 = alloca ptr, align 8
  %8 = alloca ptr, align 8
  %9 = alloca i64, align 8
  %10 = alloca i64, align 8
  %11 = alloca ptr, align 8
  %12 = alloca i64, align 8
  %13 = alloca i64, align 8
  %14 = alloca i64, align 8
  %15 = alloca ptr, align 8
  %16 = alloca i32, align 4
  %17 = alloca i32, align 4
  store ptr %0, ptr %7, align 8, !tbaa !23
  store ptr %1, ptr %8, align 8, !tbaa !23
  store i64 %2, ptr %9, align 8, !tbaa !21
  store i64 %3, ptr %10, align 8, !tbaa !21
  store ptr %4, ptr %11, align 8, !tbaa !23
  call void @llvm.lifetime.start.p0(i64 8, ptr %12) #7
  call void @llvm.lifetime.start.p0(i64 8, ptr %13) #7
  call void @llvm.lifetime.start.p0(i64 8, ptr %14) #7
  call void @llvm.lifetime.start.p0(i64 8, ptr %15) #7
  call void @llvm.lifetime.start.p0(i64 4, ptr %16) #7
  store i64 0, ptr %12, align 8, !tbaa !21
  %18 = load i64, ptr %9, align 8, !tbaa !21
  store i64 %18, ptr %13, align 8, !tbaa !21
  br label %19

19:                                               ; preds = %50, %5
  %20 = load i64, ptr %12, align 8, !tbaa !21
  %21 = load i64, ptr %13, align 8, !tbaa !21
  %22 = icmp ult i64 %20, %21
  br i1 %22, label %23, label %51

23:                                               ; preds = %19
  %24 = load i64, ptr %12, align 8, !tbaa !21
  %25 = load i64, ptr %13, align 8, !tbaa !21
  %26 = add i64 %24, %25
  %27 = udiv i64 %26, 2
  store i64 %27, ptr %14, align 8, !tbaa !21
  %28 = load ptr, ptr %8, align 8, !tbaa !23
  %29 = load i64, ptr %14, align 8, !tbaa !21
  %30 = load i64, ptr %10, align 8, !tbaa !21
  %31 = mul i64 %29, %30
  %32 = getelementptr inbounds nuw i8, ptr %28, i64 %31
  store ptr %32, ptr %15, align 8, !tbaa !23
  %33 = load ptr, ptr %11, align 8, !tbaa !23
  %34 = load ptr, ptr %7, align 8, !tbaa !23
  %35 = load ptr, ptr %15, align 8, !tbaa !23
  %36 = call i32 %33(ptr noundef %34, ptr noundef %35)
  store i32 %36, ptr %16, align 4, !tbaa !20
  %37 = load i32, ptr %16, align 4, !tbaa !20
  %38 = icmp slt i32 %37, 0
  br i1 %38, label %39, label %41

39:                                               ; preds = %23
  %40 = load i64, ptr %14, align 8, !tbaa !21
  store i64 %40, ptr %13, align 8, !tbaa !21
  br label %50

41:                                               ; preds = %23
  %42 = load i32, ptr %16, align 4, !tbaa !20
  %43 = icmp sgt i32 %42, 0
  br i1 %43, label %44, label %47

44:                                               ; preds = %41
  %45 = load i64, ptr %14, align 8, !tbaa !21
  %46 = add i64 %45, 1
  store i64 %46, ptr %12, align 8, !tbaa !21
  br label %49

47:                                               ; preds = %41
  %48 = load ptr, ptr %15, align 8, !tbaa !23
  store ptr %48, ptr %6, align 8
  store i32 1, ptr %17, align 4
  br label %52

49:                                               ; preds = %44
  br label %50

50:                                               ; preds = %49, %39
  br label %19, !llvm.loop !24

51:                                               ; preds = %19
  store ptr null, ptr %6, align 8
  store i32 1, ptr %17, align 4
  br label %52

52:                                               ; preds = %51, %47
  call void @llvm.lifetime.end.p0(i64 4, ptr %16) #7
  call void @llvm.lifetime.end.p0(i64 8, ptr %15) #7
  call void @llvm.lifetime.end.p0(i64 8, ptr %14) #7
  call void @llvm.lifetime.end.p0(i64 8, ptr %13) #7
  call void @llvm.lifetime.end.p0(i64 8, ptr %12) #7
  %53 = load ptr, ptr %6, align 8
  ret ptr %53
}

; Function Attrs: nounwind uwtable
define hidden ptr @X509V3_EXT_get_nid(i32 noundef %0) #0 {
  %2 = alloca ptr, align 8
  %3 = alloca i32, align 4
  %4 = alloca %struct.v3_ext_method, align 8
  %5 = alloca ptr, align 8
  %6 = alloca ptr, align 8
  %7 = alloca i64, align 8
  %8 = alloca i32, align 4
  store i32 %0, ptr %3, align 4, !tbaa !20
  call void @llvm.lifetime.start.p0(i64 104, ptr %4) #7
  call void @llvm.lifetime.start.p0(i64 8, ptr %5) #7
  store ptr %4, ptr %5, align 8, !tbaa !6
  call void @llvm.lifetime.start.p0(i64 8, ptr %6) #7
  call void @llvm.lifetime.start.p0(i64 8, ptr %7) #7
  %9 = load i32, ptr %3, align 4, !tbaa !20
  %10 = icmp slt i32 %9, 0
  br i1 %10, label %11, label %12

11:                                               ; preds = %1
  store ptr null, ptr %2, align 8
  store i32 1, ptr %8, align 4
  br label %34

12:                                               ; preds = %1
  %13 = load i32, ptr %3, align 4, !tbaa !20
  %14 = getelementptr inbounds nuw %struct.v3_ext_method, ptr %4, i32 0, i32 0
  store i32 %13, ptr %14, align 8, !tbaa !15
  %15 = call ptr @bsearch(ptr noundef %5, ptr noundef @standard_exts, i64 noundef 32, i64 noundef 8, ptr noundef @ext_cmp)
  store ptr %15, ptr %6, align 8, !tbaa !13
  %16 = load ptr, ptr %6, align 8, !tbaa !13
  %17 = icmp ne ptr %16, null
  br i1 %17, label %18, label %21

18:                                               ; preds = %12
  %19 = load ptr, ptr %6, align 8, !tbaa !13
  %20 = load ptr, ptr %19, align 8, !tbaa !6
  store ptr %20, ptr %2, align 8
  store i32 1, ptr %8, align 4
  br label %34

21:                                               ; preds = %12
  %22 = load ptr, ptr @ext_list, align 8, !tbaa !11
  %23 = icmp ne ptr %22, null
  br i1 %23, label %25, label %24

24:                                               ; preds = %21
  store ptr null, ptr %2, align 8
  store i32 1, ptr %8, align 4
  br label %34

25:                                               ; preds = %21
  %26 = load ptr, ptr @ext_list, align 8, !tbaa !11
  %27 = call i32 @sk_find(ptr noundef %26, ptr noundef %7, ptr noundef %4)
  %28 = icmp ne i32 %27, 0
  br i1 %28, label %30, label %29

29:                                               ; preds = %25
  store ptr null, ptr %2, align 8
  store i32 1, ptr %8, align 4
  br label %34

30:                                               ; preds = %25
  %31 = load ptr, ptr @ext_list, align 8, !tbaa !11
  %32 = load i64, ptr %7, align 8, !tbaa !21
  %33 = call ptr @sk_value(ptr noundef %31, i64 noundef %32)
  store ptr %33, ptr %2, align 8
  store i32 1, ptr %8, align 4
  br label %34

34:                                               ; preds = %30, %29, %24, %18, %11
  call void @llvm.lifetime.end.p0(i64 8, ptr %7) #7
  call void @llvm.lifetime.end.p0(i64 8, ptr %6) #7
  call void @llvm.lifetime.end.p0(i64 8, ptr %5) #7
  call void @llvm.lifetime.end.p0(i64 104, ptr %4) #7
  %35 = load ptr, ptr %2, align 8
  ret ptr %35
}

; Function Attrs: nounwind uwtable
define hidden ptr @X509V3_EXT_get(ptr noundef %0) #0 {
  %2 = alloca ptr, align 8
  %3 = alloca ptr, align 8
  %4 = alloca i32, align 4
  %5 = alloca i32, align 4
  store ptr %0, ptr %3, align 8, !tbaa !26
  call void @llvm.lifetime.start.p0(i64 4, ptr %4) #7
  %6 = load ptr, ptr %3, align 8, !tbaa !26
  %7 = getelementptr inbounds nuw %struct.X509_extension_st, ptr %6, i32 0, i32 0
  %8 = load ptr, ptr %7, align 8, !tbaa !28
  %9 = call i32 @OBJ_obj2nid(ptr noundef %8)
  store i32 %9, ptr %4, align 4, !tbaa !20
  %10 = icmp eq i32 %9, 0
  br i1 %10, label %11, label %12

11:                                               ; preds = %1
  store ptr null, ptr %2, align 8
  store i32 1, ptr %5, align 4
  br label %15

12:                                               ; preds = %1
  %13 = load i32, ptr %4, align 4, !tbaa !20
  %14 = call ptr @X509V3_EXT_get_nid(i32 noundef %13)
  store ptr %14, ptr %2, align 8
  store i32 1, ptr %5, align 4
  br label %15

15:                                               ; preds = %12, %11
  call void @llvm.lifetime.end.p0(i64 4, ptr %4) #7
  %16 = load ptr, ptr %2, align 8
  ret ptr %16
}