; Function Attrs: nounwind uwtable
define hidden ptr @X509V3_EXT_get(ptr noundef readonly captures(none) %0) local_unnamed_addr #0 {
  %2 = alloca %struct.v3_ext_method, align 8
  %3 = alloca i64, align 8
  %4 = load ptr, ptr %0, align 8, !tbaa !22
  %5 = tail call i32 @OBJ_obj2nid(ptr noundef %4) #10
  %6 = icmp eq i32 %5, 0
  br i1 %6, label %30, label %7

7:                                                ; preds = %1
  call void @llvm.lifetime.start.p0(i64 104, ptr nonnull %2) #10
  call void @llvm.lifetime.start.p0(i64 8, ptr nonnull %3) #10
  %8 = icmp slt i32 %5, 0
  br i1 %8, label %X509V3_EXT_get_nid.exit, label %9

9:                                                ; preds = %7
  store i32 %5, ptr %2, align 8, !tbaa !17
  br label %.lr.ph.i.i

.lr.ph.i.i:                                       ; preds = %20, %9
  %.01621.i.i = phi i64 [ %.1.i.i, %20 ], [ 0, %9 ]
  %.01720.i.i = phi i64 [ %.118.i.i, %20 ], [ 32, %9 ]
  %10 = add i64 %.01720.i.i, %.01621.i.i
  %11 = lshr i64 %10, 1
  %12 = shl i64 %11, 3
  %13 = getelementptr inbounds nuw i8, ptr @standard_exts, i64 %12
  %14 = load ptr, ptr %13, align 8, !tbaa !15
  %15 = load i32, ptr %14, align 8, !tbaa !17
  %16 = icmp slt i32 %5, %15
  br i1 %16, label %20, label %17

17:                                               ; preds = %.lr.ph.i.i
  %.not.i.i = icmp eq i32 %5, %15
  br i1 %.not.i.i, label %X509V3_EXT_get_nid.exit, label %18

18:                                               ; preds = %17
  %19 = add nuw i64 %11, 1
  br label %20

20:                                               ; preds = %18, %.lr.ph.i.i
  %.118.i.i = phi i64 [ %.01720.i.i, %18 ], [ %11, %.lr.ph.i.i ]
  %.1.i.i = phi i64 [ %19, %18 ], [ %.01621.i.i, %.lr.ph.i.i ]
  %21 = icmp ult i64 %.1.i.i, %.118.i.i
  br i1 %21, label %.lr.ph.i.i, label %22, !llvm.loop !18

22:                                               ; preds = %20
  %23 = load ptr, ptr @ext_list, align 8, !tbaa !6
  %.not7.i = icmp eq ptr %23, null
  br i1 %.not7.i, label %X509V3_EXT_get_nid.exit, label %24

24:                                               ; preds = %22
  %25 = call i32 @sk_find(ptr noundef nonnull %23, ptr noundef nonnull %3, ptr noundef nonnull %2) #10
  %.not8.i = icmp eq i32 %25, 0
  br i1 %.not8.i, label %X509V3_EXT_get_nid.exit, label %26

26:                                               ; preds = %24
  %27 = load ptr, ptr @ext_list, align 8, !tbaa !6
  %28 = load i64, ptr %3, align 8, !tbaa !20
  %29 = call ptr @sk_value(ptr noundef %27, i64 noundef %28) #10
  br label %X509V3_EXT_get_nid.exit

X509V3_EXT_get_nid.exit:                          ; preds = %17, %7, %22, %24, %26
  %.0.i = phi ptr [ %29, %26 ], [ null, %7 ], [ null, %22 ], [ null, %24 ], [ %14, %17 ]
  call void @llvm.lifetime.end.p0(i64 8, ptr nonnull %3) #10
  call void @llvm.lifetime.end.p0(i64 104, ptr nonnull %2) #10
  br label %30

30:                                               ; preds = %1, %X509V3_EXT_get_nid.exit
  %.0 = phi ptr [ %.0.i, %X509V3_EXT_get_nid.exit ], [ null, %1 ]
  ret ptr %.0
}